target datalayout = "e-m:e-p270:32:32-p271:32:32-p272:64:64-i64:64-i128:128-f80:128-n8:16:32:64-S128"
target triple = "x86_64-pc-linux-gnu"

%struct.MXFMetadataSet = type { [16 x i8], i64 }
%struct.MXFPackage = type { %struct.MXFMetadataSet, [16 x i8], [16 x i8], ptr, i32, [16 x i8], ptr, ptr, i32 }

; Function Attrs: inlinehint nounwind uwtable
define internal i32 @mxf_read_utf16_string(ptr noundef %0, i32 noundef %1, ptr noundef %2, i32 noundef %3) #10 {
  %5 = alloca i32, align 4
  %6 = alloca ptr, align 8
  %7 = alloca i32, align 4
  %8 = alloca ptr, align 8
  %9 = alloca i32, align 4
  %10 = alloca i32, align 4
  %11 = alloca i64, align 8
  %12 = alloca i32, align 4
  store ptr %0, ptr %6, align 8, !tbaa !138
  store i32 %1, ptr %7, align 4, !tbaa !47
  store ptr %2, ptr %8, align 8, !tbaa !327
  store i32 %3, ptr %9, align 4, !tbaa !47
  call void @llvm.lifetime.start.p0(i64 4, ptr %10) #13
  call void @llvm.lifetime.start.p0(i64 8, ptr %11) #13
  %13 = load i32, ptr %7, align 4, !tbaa !47
  %14 = icmp slt i32 %13, 0
  br i1 %14, label %18, label %15

15:                                               ; preds = %4
  %16 = load i32, ptr %7, align 4, !tbaa !47
  %17 = icmp sgt i32 %16, 1073741823
  br i1 %17, label %18, label %19

18:                                               ; preds = %15, %4
  store i32 -22, ptr %5, align 4
  store i32 1, ptr %12, align 4
  br label %62

19:                                               ; preds = %15
  %20 = load i32, ptr %7, align 4, !tbaa !47
  %21 = load i32, ptr %7, align 4, !tbaa !47
  %22 = sdiv i32 %21, 2
  %23 = add nsw i32 %20, %22
  %24 = add nsw i32 %23, 1
  %25 = sext i32 %24 to i64
  store i64 %25, ptr %11, align 8, !tbaa !37
  %26 = load ptr, ptr %8, align 8, !tbaa !327
  %27 = load ptr, ptr %26, align 8, !tbaa !13
  call void @av_free(ptr noundef %27)
  %28 = load i64, ptr %11, align 8, !tbaa !37
  %29 = call noalias ptr @av_malloc(i64 noundef %28)
  %30 = load ptr, ptr %8, align 8, !tbaa !327
  store ptr %29, ptr %30, align 8, !tbaa !13
  %31 = load ptr, ptr %8, align 8, !tbaa !327
  %32 = load ptr, ptr %31, align 8, !tbaa !13
  %33 = icmp ne ptr %32, null
  br i1 %33, label %35, label %34

34:                                               ; preds = %19
  store i32 -12, ptr %5, align 4
  store i32 1, ptr %12, align 4
  br label %62

35:                                               ; preds = %19
  %36 = load i32, ptr %9, align 4, !tbaa !47
  %37 = icmp ne i32 %36, 0
  br i1 %37, label %38, label %46

38:                                               ; preds = %35
  %39 = load ptr, ptr %6, align 8, !tbaa !138
  %40 = load i32, ptr %7, align 4, !tbaa !47
  %41 = load ptr, ptr %8, align 8, !tbaa !327
  %42 = load ptr, ptr %41, align 8, !tbaa !13
  %43 = load i64, ptr %11, align 8, !tbaa !37
  %44 = trunc i64 %43 to i32
  %45 = call i32 @avio_get_str16be(ptr noundef %39, i32 noundef %40, ptr noundef %42, i32 noundef %44)
  store i32 %45, ptr %10, align 4, !tbaa !47
  br label %54

46:                                               ; preds = %35
  %47 = load ptr, ptr %6, align 8, !tbaa !138
  %48 = load i32, ptr %7, align 4, !tbaa !47
  %49 = load ptr, ptr %8, align 8, !tbaa !327
  %50 = load ptr, ptr %49, align 8, !tbaa !13
  %51 = load i64, ptr %11, align 8, !tbaa !37
  %52 = trunc i64 %51 to i32
  %53 = call i32 @avio_get_str16le(ptr noundef %47, i32 noundef %48, ptr noundef %50, i32 noundef %52)
  store i32 %53, ptr %10, align 4, !tbaa !47
  br label %54

54:                                               ; preds = %46, %38
  %55 = load i32, ptr %10, align 4, !tbaa !47
  %56 = icmp slt i32 %55, 0
  br i1 %56, label %57, label %60

57:                                               ; preds = %54
  %58 = load ptr, ptr %8, align 8, !tbaa !327
  call void @av_freep(ptr noundef %58)
  %59 = load i32, ptr %10, align 4, !tbaa !47
  store i32 %59, ptr %5, align 4
  store i32 1, ptr %12, align 4
  br label %62

60:                                               ; preds = %54
  %61 = load i32, ptr %10, align 4, !tbaa !47
  store i32 %61, ptr %5, align 4
  store i32 1, ptr %12, align 4
  br label %62

62:                                               ; preds = %60, %57, %34, %18
  call void @llvm.lifetime.end.p0(i64 8, ptr %11) #13
  call void @llvm.lifetime.end.p0(i64 4, ptr %10) #13
  %63 = load i32, ptr %5, align 4
  ret i32 %63
}

; Function Attrs: nounwind uwtable
define internal i32 @mxf_read_utf16be_string(ptr noundef %0, i32 noundef %1, ptr noundef %2) #0 {
  %4 = alloca ptr, align 8
  %5 = alloca i32, align 4
  %6 = alloca ptr, align 8
  store ptr %0, ptr %4, align 8, !tbaa !138
  store i32 %1, ptr %5, align 4, !tbaa !47
  store ptr %2, ptr %6, align 8, !tbaa !327
  %7 = load ptr, ptr %4, align 8, !tbaa !138
  %8 = load i32, ptr %5, align 4, !tbaa !47
  %9 = load ptr, ptr %6, align 8, !tbaa !327
  %10 = call i32 @mxf_read_utf16_string(ptr noundef %7, i32 noundef %8, ptr noundef %9, i32 noundef 1)
  ret i32 %10
}

; Function Attrs: nounwind uwtable
define internal i32 @mxf_read_package(ptr noundef %0, ptr noundef %1, i32 noundef %2, i32 noundef %3, ptr noundef %4, i64 noundef %5) #0 {
  %7 = alloca i32, align 4
  %8 = alloca ptr, align 8
  %9 = alloca ptr, align 8
  %10 = alloca i32, align 4
  %11 = alloca i32, align 4
  %12 = alloca ptr, align 8
  %13 = alloca i64, align 8
  %14 = alloca ptr, align 8
  %15 = alloca i32, align 4
  store ptr %0, ptr %8, align 8, !tbaa !90
  store ptr %1, ptr %9, align 8, !tbaa !138
  store i32 %2, ptr %10, align 4, !tbaa !47
  store i32 %3, ptr %11, align 4, !tbaa !47
  store ptr %4, ptr %12, align 8, !tbaa !13
  store i64 %5, ptr %13, align 8, !tbaa !37
  call void @llvm.lifetime.start.p0(i64 8, ptr %14) #13
  %16 = load ptr, ptr %8, align 8, !tbaa !90
  store ptr %16, ptr %14, align 8, !tbaa !146
  %17 = load i32, ptr %10, align 4, !tbaa !47
  switch i32 %17, label %55 [
    i32 17411, label %18
    i32 17409, label %25
    i32 18177, label %36
    i32 17410, label %42
    i32 17414, label %48
  ]

18:                                               ; preds = %6
  %19 = load ptr, ptr %9, align 8, !tbaa !138
  %20 = load ptr, ptr %14, align 8, !tbaa !146
  %21 = getelementptr inbounds nuw %struct.MXFPackage, ptr %20, i32 0, i32 3
  %22 = load ptr, ptr %14, align 8, !tbaa !146
  %23 = getelementptr inbounds nuw %struct.MXFPackage, ptr %22, i32 0, i32 4
  %24 = call i32 @mxf_read_strong_ref_array(ptr noundef %19, ptr noundef %21, ptr noundef %23)
  store i32 %24, ptr %7, align 4
  store i32 1, ptr %15, align 4
  br label %56

25:                                               ; preds = %6
  %26 = load ptr, ptr %9, align 8, !tbaa !138
  %27 = load ptr, ptr %14, align 8, !tbaa !146
  %28 = getelementptr inbounds nuw %struct.MXFPackage, ptr %27, i32 0, i32 2
  %29 = getelementptr inbounds [16 x i8], ptr %28, i64 0, i64 0
  %30 = call i32 @avio_read(ptr noundef %26, ptr noundef %29, i32 noundef 16)
  %31 = load ptr, ptr %9, align 8, !tbaa !138
  %32 = load ptr, ptr %14, align 8, !tbaa !146
  %33 = getelementptr inbounds nuw %struct.MXFPackage, ptr %32, i32 0, i32 1
  %34 = getelementptr inbounds [16 x i8], ptr %33, i64 0, i64 0
  %35 = call i32 @avio_read(ptr noundef %31, ptr noundef %34, i32 noundef 16)
  br label %55

36:                                               ; preds = %6
  %37 = load ptr, ptr %9, align 8, !tbaa !138
  %38 = load ptr, ptr %14, align 8, !tbaa !146
  %39 = getelementptr inbounds nuw %struct.MXFPackage, ptr %38, i32 0, i32 5
  %40 = getelementptr inbounds [16 x i8], ptr %39, i64 0, i64 0
  %41 = call i32 @avio_read(ptr noundef %37, ptr noundef %40, i32 noundef 16)
  br label %55

42:                                               ; preds = %6
  %43 = load ptr, ptr %9, align 8, !tbaa !138
  %44 = load i32, ptr %11, align 4, !tbaa !47
  %45 = load ptr, ptr %14, align 8, !tbaa !146
  %46 = getelementptr inbounds nuw %struct.MXFPackage, ptr %45, i32 0, i32 6
  %47 = call i32 @mxf_read_utf16be_string(ptr noundef %43, i32 noundef %44, ptr noundef %46)
  store i32 %47, ptr %7, align 4
  store i32 1, ptr %15, align 4
  br label %56

48:                                               ; preds = %6
  %49 = load ptr, ptr %9, align 8, !tbaa !138
  %50 = load ptr, ptr %14, align 8, !tbaa !146
  %51 = getelementptr inbounds nuw %struct.MXFPackage, ptr %50, i32 0, i32 7
  %52 = load ptr, ptr %14, align 8, !tbaa !146
  %53 = getelementptr inbounds nuw %struct.MXFPackage, ptr %52, i32 0, i32 8
  %54 = call i32 @mxf_read_strong_ref_array(ptr noundef %49, ptr noundef %51, ptr noundef %53)
  store i32 %54, ptr %7, align 4
  store i32 1, ptr %15, align 4
  br label %56

55:                                               ; preds = %6, %36, %25
  store i32 0, ptr %7, align 4
  store i32 1, ptr %15, align 4
  br label %56

56:                                               ; preds = %55, %48, %42, %18
  call void @llvm.lifetime.end.p0(i64 8, ptr %14) #13
  %57 = load i32, ptr %7, align 4
  ret i32 %57
}