; Function Attrs: nounwind uwtable
define internal i32 @mxf_read_package(ptr noundef %0, ptr noundef %1, i32 noundef %2, i32 noundef %3, ptr readnone captures(none) %4, i64 %5) #1 {
  switch i32 %2, label %mxf_read_utf16be_string.exit [
    i32 17411, label %7
    i32 17409, label %11
    i32 18177, label %16
    i32 17410, label %19
    i32 17414, label %32
  ]

7:                                                ; preds = %6
  %8 = getelementptr inbounds nuw i8, ptr %0, i64 56
  %9 = getelementptr inbounds nuw i8, ptr %0, i64 64
  %10 = tail call fastcc i32 @mxf_read_strong_ref_array(ptr noundef %1, ptr noundef nonnull %8, ptr noundef nonnull %9)
  br label %mxf_read_utf16be_string.exit

11:                                               ; preds = %6
  %12 = getelementptr inbounds nuw i8, ptr %0, i64 40
  %13 = tail call i32 @avio_read(ptr noundef %1, ptr noundef nonnull %12, i32 noundef 16) #15
  %14 = getelementptr inbounds nuw i8, ptr %0, i64 24
  %15 = tail call i32 @avio_read(ptr noundef %1, ptr noundef nonnull %14, i32 noundef 16) #15
  br label %mxf_read_utf16be_string.exit

16:                                               ; preds = %6
  %17 = getelementptr inbounds nuw i8, ptr %0, i64 68
  %18 = tail call i32 @avio_read(ptr noundef %1, ptr noundef nonnull %17, i32 noundef 16) #15
  br label %mxf_read_utf16be_string.exit

19:                                               ; preds = %6
  %20 = getelementptr inbounds nuw i8, ptr %0, i64 88
  %or.cond.i.i = icmp ugt i32 %3, 1073741823
  br i1 %or.cond.i.i, label %mxf_read_utf16be_string.exit, label %21

21:                                               ; preds = %19
  %22 = lshr i32 %3, 1
  %23 = add nuw nsw i32 %3, 1
  %24 = add nuw nsw i32 %23, %22
  %25 = zext nneg i32 %24 to i64
  %26 = load ptr, ptr %20, align 8, !tbaa !245
  tail call void @av_free(ptr noundef %26) #15
  %27 = tail call noalias ptr @av_malloc(i64 noundef %25) #15
  store ptr %27, ptr %20, align 8, !tbaa !245
  %.not.i.i = icmp eq ptr %27, null
  br i1 %.not.i.i, label %mxf_read_utf16be_string.exit, label %28

28:                                               ; preds = %21
  %29 = tail call i32 @avio_get_str16be(ptr noundef %1, i32 noundef %3, ptr noundef nonnull %27, i32 noundef %24) #15
  %30 = icmp slt i32 %29, 0
  br i1 %30, label %31, label %mxf_read_utf16be_string.exit

31:                                               ; preds = %28
  tail call void @av_freep(ptr noundef nonnull %20) #15
  br label %mxf_read_utf16be_string.exit

32:                                               ; preds = %6
  %33 = getelementptr inbounds nuw i8, ptr %0, i64 96
  %34 = getelementptr inbounds nuw i8, ptr %0, i64 104
  %35 = tail call fastcc i32 @mxf_read_strong_ref_array(ptr noundef %1, ptr noundef nonnull %33, ptr noundef nonnull %34)
  br label %mxf_read_utf16be_string.exit

mxf_read_utf16be_string.exit:                     ; preds = %31, %28, %21, %19, %6, %11, %16, %32, %7
  %.0 = phi i32 [ %35, %32 ], [ %10, %7 ], [ 0, %16 ], [ 0, %11 ], [ 0, %6 ], [ %29, %31 ], [ -22, %19 ], [ -12, %21 ], [ %29, %28 ]
  ret i32 %.0
}